target datalayout = "e-m:e-p270:32:32-p271:32:32-p272:64:64-i64:64-i128:128-f80:128-n8:16:32:64-S128"
target triple = "x86_64-pc-linux-gnu"

%"class.cv::ppf_match_3d::PPF3DDetector" = type <{ ptr, double, double, double, double, double, double, %"class.cv::Mat", %"class.cv::Mat", i32, [4 x i8], ptr, ptr, double, double, i8, [3 x i8], i32, i8, [7 x i8] }>
%"class.cv::Mat" = type { i32, i32, i32, i32, ptr, ptr, ptr, ptr, ptr, ptr, %"struct.cv::MatSize", %"struct.cv::MatStep" }
%"struct.cv::MatSize" = type { ptr }
%"struct.cv::MatStep" = type { ptr, [2 x i64] }

@_ZTVN2cv12ppf_match_3d13PPF3DDetectorE = unnamed_addr constant { [4 x ptr] } { [4 x ptr] [ptr null, ptr @_ZTIN2cv12ppf_match_3d13PPF3DDetectorE, ptr @_ZN2cv12ppf_match_3d13PPF3DDetectorD1Ev, ptr @_ZN2cv12ppf_match_3d13PPF3DDetectorD0Ev] }, align 8

; Function Attrs: mustprogress nounwind uwtable
define void @_ZN2cv12ppf_match_3d13PPF3DDetector15setSearchParamsEddb(ptr noundef nonnull align 8 dereferenceable(297) %0, double noundef %1, double noundef %2, i1 noundef zeroext %3) #5 align 2 {
  %5 = alloca ptr, align 8
  %6 = alloca double, align 8
  %7 = alloca double, align 8
  %8 = alloca i8, align 1
  store ptr %0, ptr %5, align 8, !tbaa !3
  store double %1, ptr %6, align 8, !tbaa !33
  store double %2, ptr %7, align 8, !tbaa !33
  %9 = zext i1 %3 to i8
  store i8 %9, ptr %8, align 1, !tbaa !34
  %10 = load ptr, ptr %5, align 8
  %11 = load double, ptr %6, align 8, !tbaa !33
  %12 = fcmp olt double %11, 0.000000e+00
  br i1 %12, label %13, label %17

13:                                               ; preds = %4
  %14 = getelementptr inbounds nuw %"class.cv::ppf_match_3d::PPF3DDetector", ptr %10, i32 0, i32 4
  %15 = load double, ptr %14, align 8, !tbaa !10
  %16 = getelementptr inbounds nuw %"class.cv::ppf_match_3d::PPF3DDetector", ptr %10, i32 0, i32 13
  store double %15, ptr %16, align 8, !tbaa !35
  br label %20

17:                                               ; preds = %4
  %18 = load double, ptr %6, align 8, !tbaa !33
  %19 = getelementptr inbounds nuw %"class.cv::ppf_match_3d::PPF3DDetector", ptr %10, i32 0, i32 13
  store double %18, ptr %19, align 8, !tbaa !35
  br label %20

20:                                               ; preds = %17, %13
  %21 = load double, ptr %7, align 8, !tbaa !33
  %22 = fcmp olt double %21, 0.000000e+00
  br i1 %22, label %23, label %30

23:                                               ; preds = %20
  %24 = getelementptr inbounds nuw %"class.cv::ppf_match_3d::PPF3DDetector", ptr %10, i32 0, i32 1
  %25 = load double, ptr %24, align 8, !tbaa !29
  %26 = fdiv double 3.600000e+02, %25
  %27 = fdiv double %26, 1.800000e+02
  %28 = fmul double %27, 0x400921FB54442D18
  %29 = getelementptr inbounds nuw %"class.cv::ppf_match_3d::PPF3DDetector", ptr %10, i32 0, i32 14
  store double %28, ptr %29, align 8, !tbaa !36
  br label %33

30:                                               ; preds = %20
  %31 = load double, ptr %7, align 8, !tbaa !33
  %32 = getelementptr inbounds nuw %"class.cv::ppf_match_3d::PPF3DDetector", ptr %10, i32 0, i32 14
  store double %31, ptr %32, align 8, !tbaa !36
  br label %33

33:                                               ; preds = %30, %23
  %34 = load i8, ptr %8, align 1, !tbaa !34, !range !37, !noundef !38
  %35 = trunc i8 %34 to i1
  %36 = getelementptr inbounds nuw %"class.cv::ppf_match_3d::PPF3DDetector", ptr %10, i32 0, i32 15
  %37 = zext i1 %35 to i8
  store i8 %37, ptr %36, align 8, !tbaa !39
  ret void
}

; Function Attrs: mustprogress uwtable
define void @_ZN2cv12ppf_match_3d13PPF3DDetectorC2Eddd(ptr noundef nonnull align 8 dereferenceable(297) %0, double noundef %1, double noundef %2, double noundef %3) unnamed_addr #4 align 2 personality ptr @__gxx_personality_v0 {
  %5 = alloca ptr, align 8
  %6 = alloca double, align 8
  %7 = alloca double, align 8
  %8 = alloca double, align 8
  %9 = alloca ptr, align 8
  %10 = alloca i32, align 4
  store ptr %0, ptr %5, align 8, !tbaa !3
  store double %1, ptr %6, align 8, !tbaa !33
  store double %2, ptr %7, align 8, !tbaa !33
  store double %3, ptr %8, align 8, !tbaa !33
  %11 = load ptr, ptr %5, align 8
  store ptr getelementptr inbounds inrange(-16, 16) ({ [4 x ptr] }, ptr @_ZTVN2cv12ppf_match_3d13PPF3DDetectorE, i32 0, i32 0, i32 2), ptr %11, align 8, !tbaa !8
  %12 = getelementptr inbounds nuw %"class.cv::ppf_match_3d::PPF3DDetector", ptr %11, i32 0, i32 7
  call void @_ZN2cv3MatC1Ev(ptr noundef nonnull align 8 dereferenceable(96) %12) #3
  %13 = getelementptr inbounds nuw %"class.cv::ppf_match_3d::PPF3DDetector", ptr %11, i32 0, i32 8
  call void @_ZN2cv3MatC1Ev(ptr noundef nonnull align 8 dereferenceable(96) %13) #3
  %14 = load double, ptr %6, align 8, !tbaa !33
  %15 = getelementptr inbounds nuw %"class.cv::ppf_match_3d::PPF3DDetector", ptr %11, i32 0, i32 4
  store double %14, ptr %15, align 8, !tbaa !10
  %16 = load double, ptr %7, align 8, !tbaa !33
  %17 = getelementptr inbounds nuw %"class.cv::ppf_match_3d::PPF3DDetector", ptr %11, i32 0, i32 6
  store double %16, ptr %17, align 8, !tbaa !25
  %18 = load double, ptr %8, align 8, !tbaa !33
  %19 = getelementptr inbounds nuw %"class.cv::ppf_match_3d::PPF3DDetector", ptr %11, i32 0, i32 5
  store double %18, ptr %19, align 8, !tbaa !27
  %20 = getelementptr inbounds nuw %"class.cv::ppf_match_3d::PPF3DDetector", ptr %11, i32 0, i32 5
  %21 = load double, ptr %20, align 8, !tbaa !27
  %22 = fdiv double 3.600000e+02, %21
  %23 = fmul double %22, 0x400921FB54442D18
  %24 = fdiv double %23, 1.800000e+02
  %25 = getelementptr inbounds nuw %"class.cv::ppf_match_3d::PPF3DDetector", ptr %11, i32 0, i32 2
  store double %24, ptr %25, align 8, !tbaa !28
  %26 = getelementptr inbounds nuw %"class.cv::ppf_match_3d::PPF3DDetector", ptr %11, i32 0, i32 2
  %27 = load double, ptr %26, align 8, !tbaa !28
  %28 = getelementptr inbounds nuw %"class.cv::ppf_match_3d::PPF3DDetector", ptr %11, i32 0, i32 1
  store double %27, ptr %28, align 8, !tbaa !29
  %29 = getelementptr inbounds nuw %"class.cv::ppf_match_3d::PPF3DDetector", ptr %11, i32 0, i32 18
  store i8 0, ptr %29, align 8, !tbaa !30
  %30 = getelementptr inbounds nuw %"class.cv::ppf_match_3d::PPF3DDetector", ptr %11, i32 0, i32 11
  store ptr null, ptr %30, align 8, !tbaa !31
  %31 = getelementptr inbounds nuw %"class.cv::ppf_match_3d::PPF3DDetector", ptr %11, i32 0, i32 12
  store ptr null, ptr %31, align 8, !tbaa !32
  invoke void @_ZN2cv12ppf_match_3d13PPF3DDetector15setSearchParamsEddb(ptr noundef nonnull align 8 dereferenceable(297) %11, double noundef -1.000000e+00, double noundef -1.000000e+00, i1 noundef zeroext false)
          to label %32 unwind label %33

32:                                               ; preds = %4
  ret void

33:                                               ; preds = %4
  %34 = landingpad { ptr, i32 }
          cleanup
  %35 = extractvalue { ptr, i32 } %34, 0
  store ptr %35, ptr %9, align 8
  %36 = extractvalue { ptr, i32 } %34, 1
  store i32 %36, ptr %10, align 4
  call void @_ZN2cv3MatD1Ev(ptr noundef nonnull align 8 dereferenceable(96) %13) #3
  call void @_ZN2cv3MatD1Ev(ptr noundef nonnull align 8 dereferenceable(96) %12) #3
  br label %37

37:                                               ; preds = %33
  %38 = load ptr, ptr %9, align 8
  %39 = load i32, ptr %10, align 4
  %40 = insertvalue { ptr, i32 } poison, ptr %38, 0
  %41 = insertvalue { ptr, i32 } %40, i32 %39, 1
  resume { ptr, i32 } %41
}