; Function Attrs: mustprogress nounwind uwtable
define void @_ZN2cv12ppf_match_3d13PPF3DDetectorC2Eddd(ptr noundef nonnull align 8 dereferenceable(297) initializes((0, 8)) %0, double noundef %1, double noundef %2, double noundef %3) unnamed_addr #3 align 2 personality ptr @__gxx_personality_v0 {
  store ptr getelementptr inbounds nuw inrange(-16, 16) (i8, ptr @_ZTVN2cv12ppf_match_3d13PPF3DDetectorE, i64 16), ptr %0, align 8, !tbaa !3
  %5 = getelementptr inbounds nuw i8, ptr %0, i64 56
  tail call void @_ZN2cv3MatC1Ev(ptr noundef nonnull align 8 dereferenceable(96) %5) #27
  %6 = getelementptr inbounds nuw i8, ptr %0, i64 152
  tail call void @_ZN2cv3MatC1Ev(ptr noundef nonnull align 8 dereferenceable(96) %6) #27
  %7 = getelementptr inbounds nuw i8, ptr %0, i64 32
  store double %1, ptr %7, align 8, !tbaa !6
  %8 = getelementptr inbounds nuw i8, ptr %0, i64 48
  store double %2, ptr %8, align 8, !tbaa !23
  %9 = getelementptr inbounds nuw i8, ptr %0, i64 40
  store double %3, ptr %9, align 8, !tbaa !25
  %10 = fdiv double 3.600000e+02, %3
  %11 = fmul double %10, 0x400921FB54442D18
  %12 = fdiv double %11, 1.800000e+02
  %13 = getelementptr inbounds nuw i8, ptr %0, i64 16
  store double %12, ptr %13, align 8, !tbaa !26
  %14 = getelementptr inbounds nuw i8, ptr %0, i64 8
  store double %12, ptr %14, align 8, !tbaa !27
  %15 = getelementptr inbounds nuw i8, ptr %0, i64 296
  store i8 0, ptr %15, align 8, !tbaa !28
  %16 = getelementptr inbounds nuw i8, ptr %0, i64 256
  %17 = getelementptr inbounds nuw i8, ptr %0, i64 272
  tail call void @llvm.memset.p0.i64(ptr noundef nonnull align 8 dereferenceable(16) %16, i8 0, i64 16, i1 false)
  store double %1, ptr %17, align 8, !tbaa !29
  %18 = fdiv double 3.600000e+02, %12
  %19 = fdiv double %18, 1.800000e+02
  %20 = fmul double %19, 0x400921FB54442D18
  %21 = getelementptr inbounds nuw i8, ptr %0, i64 280
  store double %20, ptr %21, align 8, !tbaa !30
  %22 = getelementptr inbounds nuw i8, ptr %0, i64 288
  store i8 0, ptr %22, align 8, !tbaa !31
  ret void
}